; ModuleID = '11/753.c'
source_filename = "11/753.c"
target datalayout = "e-m:e-p270:32:32-p271:32:32-p272:64:64-i64:64-f80:128-n8:16:32:64-S128"
target triple = "x86_64-pc-linux-gnu"

@.str = private unnamed_addr constant [9 x i8] c"%d %d %d\00", align 1
@.str.1 = private unnamed_addr constant [3 x i8] c"%d\00", align 1

; Function Attrs: noinline nounwind uwtable
define dso_local i32 @main() #0 {
  %1 = alloca i32, align 4
  %2 = alloca i32, align 4
  %3 = alloca i32, align 4
  %4 = alloca i32, align 4
  %5 = alloca i32, align 4
  store i32 0, i32* %1, align 4
  %6 = call i32 (i8*, ...) @__isoc99_scanf(i8* getelementptr inbounds ([9 x i8], [9 x i8]* @.str, i64 0, i64 0), i32* %2, i32* %3, i32* %4)
  %7 = load i32, i32* %2, align 4
  %8 = srem i32 %7, 400
  %9 = icmp eq i32 %8, 0
  br i1 %9, label %18, label %10

10:                                               ; preds = %0
  %11 = load i32, i32* %2, align 4
  %12 = srem i32 %11, 4
  %13 = icmp eq i32 %12, 0
  br i1 %13, label %14, label %33

14:                                               ; preds = %10
  %15 = load i32, i32* %2, align 4
  %16 = srem i32 %15, 100
  %17 = icmp ne i32 %16, 0
  br i1 %17, label %18, label %33

18:                                               ; preds = %14, %0
  %19 = load i32, i32* %3, align 4
  switch i32 %19, label %32 [
    i32 1, label %20
    i32 2, label %21
    i32 3, label %22
    i32 4, label %23
    i32 5, label %24
    i32 6, label %25
    i32 7, label %26
    i32 8, label %27
    i32 9, label %28
    i32 10, label %29
    i32 11, label %30
    i32 12, label %31
  ]

20:                                               ; preds = %18
  store i32 0, i32* %5, align 4
  br label %32

21:                                               ; preds = %18
  store i32 31, i32* %5, align 4
  br label %32

22:                                               ; preds = %18
  store i32 60, i32* %5, align 4
  br label %32

23:                                               ; preds = %18
  store i32 91, i32* %5, align 4
  br label %32

24:                                               ; preds = %18
  store i32 121, i32* %5, align 4
  br label %32

25:                                               ; preds = %18
  store i32 152, i32* %5, align 4
  br label %32

26:                                               ; preds = %18
  store i32 182, i32* %5, align 4
  br label %32

27:                                               ; preds = %18
  store i32 213, i32* %5, align 4
  br label %32

28:                                               ; preds = %18
  store i32 244, i32* %5, align 4
  br label %32

29:                                               ; preds = %18
  store i32 274, i32* %5, align 4
  br label %32

30:                                               ; preds = %18
  store i32 305, i32* %5, align 4
  br label %32

31:                                               ; preds = %18
  store i32 335, i32* %5, align 4
  br label %32

32:                                               ; preds = %31, %18, %30, %29, %28, %27, %26, %25, %24, %23, %22, %21, %20
  br label %48

33:                                               ; preds = %14, %10
  %34 = load i32, i32* %3, align 4
  switch i32 %34, label %47 [
    i32 1, label %35
    i32 2, label %36
    i32 3, label %37
    i32 4, label %38
    i32 5, label %39
    i32 6, label %40
    i32 7, label %41
    i32 8, label %42
    i32 9, label %43
    i32 10, label %44
    i32 11, label %45
    i32 12, label %46
  ]

35:                                               ; preds = %33
  store i32 0, i32* %5, align 4
  br label %47

36:                                               ; preds = %33
  store i32 31, i32* %5, align 4
  br label %47

37:                                               ; preds = %33
  store i32 59, i32* %5, align 4
  br label %47

38:                                               ; preds = %33
  store i32 90, i32* %5, align 4
  br label %47

39:                                               ; preds = %33
  store i32 120, i32* %5, align 4
  br label %47

40:                                               ; preds = %33
  store i32 151, i32* %5, align 4
  br label %47

41:                                               ; preds = %33
  store i32 181, i32* %5, align 4
  br label %47

42:                                               ; preds = %33
  store i32 212, i32* %5, align 4
  br label %47

43:                                               ; preds = %33
  store i32 243, i32* %5, align 4
  br label %47

44:                                               ; preds = %33
  store i32 273, i32* %5, align 4
  br label %47

45:                                               ; preds = %33
  store i32 304, i32* %5, align 4
  br label %47

46:                                               ; preds = %33
  store i32 334, i32* %5, align 4
  br label %47

47:                                               ; preds = %46, %33, %45, %44, %43, %42, %41, %40, %39, %38, %37, %36, %35
  br label %48

48:                                               ; preds = %47, %32
  %49 = load i32, i32* %4, align 4
  %50 = load i32, i32* %5, align 4
  %51 = add nsw i32 %50, %49
  store i32 %51, i32* %5, align 4
  %52 = load i32, i32* %5, align 4
  %53 = call i32 (i8*, ...) @printf(i8* getelementptr inbounds ([3 x i8], [3 x i8]* @.str.1, i64 0, i64 0), i32 %52)
  ret i32 0
}

declare dso_local i32 @__isoc99_scanf(i8*, ...) #1

declare dso_local i32 @printf(i8*, ...) #1


!llvm.module.flags = !{!0}
!llvm.ident = !{!1}

!0 = !{i32 1, !"wchar_size", i32 4}
!1 = !{!"clang version 10.0.0-4ubuntu1 "}
